; Function Attrs: nounwind uwtable
define hidden zeroext i1 @X11_GLES_MakeCurrent(ptr noundef %0, ptr noundef readonly captures(address_is_null) %1, ptr noundef %2) local_unnamed_addr #0 {
  %.not = icmp eq ptr %1, null
  br i1 %.not, label %9, label %4

4:                                                ; preds = %3
  %5 = getelementptr inbounds nuw i8, ptr %1, i64 392
  %6 = load ptr, ptr %5, align 8
  %7 = getelementptr inbounds nuw i8, ptr %6, i64 384
  %8 = load ptr, ptr %7, align 8
  br label %9

9:                                                ; preds = %3, %4
  %10 = phi ptr [ %8, %4 ], [ null, %3 ]
  %11 = tail call zeroext i1 @SDL_EGL_MakeCurrent(ptr noundef %0, ptr noundef %10, ptr noundef %2) #4
  ret i1 %11
}